; ModuleID = '7/1156.c'
source_filename = "7/1156.c"
target datalayout = "e-m:e-p270:32:32-p271:32:32-p272:64:64-i64:64-f80:128-n8:16:32:64-S128"
target triple = "x86_64-pc-linux-gnu"

@.str = private unnamed_addr constant [3 x i8] c"%s\00", align 1

; Function Attrs: noinline nounwind uwtable
define dso_local i32 @main() #0 {
  %1 = alloca i32, align 4
  %2 = alloca [256 x i8], align 16
  %3 = alloca [256 x i8], align 16
  %4 = alloca [256 x i8], align 16
  %5 = alloca i32, align 4
  %6 = alloca i32, align 4
  %7 = alloca i32, align 4
  %8 = alloca i32, align 4
  %9 = alloca i32, align 4
  %10 = alloca i32, align 4
  %11 = alloca i32, align 4
  %12 = alloca i32, align 4
  %13 = alloca i32, align 4
  %14 = alloca i32, align 4
  store i32 0, i32* %1, align 4
  %15 = getelementptr inbounds [256 x i8], [256 x i8]* %2, i64 0, i64 0
  %16 = call i32 (i8*, ...) @__isoc99_scanf(i8* getelementptr inbounds ([3 x i8], [3 x i8]* @.str, i64 0, i64 0), i8* %15)
  %17 = getelementptr inbounds [256 x i8], [256 x i8]* %3, i64 0, i64 0
  %18 = call i32 (i8*, ...) @__isoc99_scanf(i8* getelementptr inbounds ([3 x i8], [3 x i8]* @.str, i64 0, i64 0), i8* %17)
  %19 = getelementptr inbounds [256 x i8], [256 x i8]* %4, i64 0, i64 0
  %20 = call i32 (i8*, ...) @__isoc99_scanf(i8* getelementptr inbounds ([3 x i8], [3 x i8]* @.str, i64 0, i64 0), i8* %19)
  %21 = getelementptr inbounds [256 x i8], [256 x i8]* %3, i64 0, i64 0
  %22 = call i64 @strlen(i8* %21) #3
  %23 = trunc i64 %22 to i32
  store i32 %23, i32* %5, align 4
  store i32 0, i32* %14, align 4
  store i32 0, i32* %13, align 4
  br label %24

24:                                               ; preds = %66, %0
  %25 = load i32, i32* %13, align 4
  %26 = sext i32 %25 to i64
  %27 = getelementptr inbounds [256 x i8], [256 x i8]* %2, i64 0, i64 0
  %28 = call i64 @strlen(i8* %27) #3
  %29 = icmp ult i64 %26, %28
  br i1 %29, label %30, label %69

30:                                               ; preds = %24
  store i32 0, i32* %8, align 4
  %31 = load i32, i32* %13, align 4
  store i32 %31, i32* %6, align 4
  br label %32

32:                                               ; preds = %54, %30
  %33 = load i32, i32* %6, align 4
  %34 = load i32, i32* %13, align 4
  %35 = load i32, i32* %5, align 4
  %36 = add nsw i32 %34, %35
  %37 = icmp slt i32 %33, %36
  br i1 %37, label %38, label %57

38:                                               ; preds = %32
  %39 = load i32, i32* %6, align 4
  %40 = sext i32 %39 to i64
  %41 = getelementptr inbounds [256 x i8], [256 x i8]* %2, i64 0, i64 %40
  %42 = load i8, i8* %41, align 1
  %43 = sext i8 %42 to i32
  %44 = load i32, i32* %8, align 4
  %45 = sext i32 %44 to i64
  %46 = getelementptr inbounds [256 x i8], [256 x i8]* %3, i64 0, i64 %45
  %47 = load i8, i8* %46, align 1
  %48 = sext i8 %47 to i32
  %49 = icmp ne i32 %43, %48
  br i1 %49, label %50, label %51

50:                                               ; preds = %38
  br label %57

51:                                               ; preds = %38
  %52 = load i32, i32* %8, align 4
  %53 = add nsw i32 %52, 1
  store i32 %53, i32* %8, align 4
  br label %54

54:                                               ; preds = %51
  %55 = load i32, i32* %6, align 4
  %56 = add nsw i32 %55, 1
  store i32 %56, i32* %6, align 4
  br label %32

57:                                               ; preds = %50, %32
  %58 = load i32, i32* %6, align 4
  %59 = load i32, i32* %13, align 4
  %60 = load i32, i32* %5, align 4
  %61 = add nsw i32 %59, %60
  %62 = icmp eq i32 %58, %61
  br i1 %62, label %63, label %65

63:                                               ; preds = %57
  store i32 1, i32* %14, align 4
  %64 = load i32, i32* %13, align 4
  store i32 %64, i32* %11, align 4
  br label %69

65:                                               ; preds = %57
  br label %66

66:                                               ; preds = %65
  %67 = load i32, i32* %13, align 4
  %68 = add nsw i32 %67, 1
  store i32 %68, i32* %13, align 4
  br label %24

69:                                               ; preds = %63, %24
  %70 = load i32, i32* %14, align 4
  %71 = icmp eq i32 %70, 1
  br i1 %71, label %72, label %95

72:                                               ; preds = %69
  %73 = load i32, i32* %11, align 4
  store i32 %73, i32* %12, align 4
  store i32 0, i32* %8, align 4
  br label %74

74:                                               ; preds = %89, %72
  %75 = load i32, i32* %8, align 4
  %76 = sext i32 %75 to i64
  %77 = getelementptr inbounds [256 x i8], [256 x i8]* %4, i64 0, i64 %76
  %78 = load i8, i8* %77, align 1
  %79 = sext i8 %78 to i32
  %80 = icmp ne i32 %79, 0
  br i1 %80, label %81, label %94

81:                                               ; preds = %74
  %82 = load i32, i32* %8, align 4
  %83 = sext i32 %82 to i64
  %84 = getelementptr inbounds [256 x i8], [256 x i8]* %4, i64 0, i64 %83
  %85 = load i8, i8* %84, align 1
  %86 = load i32, i32* %12, align 4
  %87 = sext i32 %86 to i64
  %88 = getelementptr inbounds [256 x i8], [256 x i8]* %2, i64 0, i64 %87
  store i8 %85, i8* %88, align 1
  br label %89

89:                                               ; preds = %81
  %90 = load i32, i32* %12, align 4
  %91 = add nsw i32 %90, 1
  store i32 %91, i32* %12, align 4
  %92 = load i32, i32* %8, align 4
  %93 = add nsw i32 %92, 1
  store i32 %93, i32* %8, align 4
  br label %74

94:                                               ; preds = %74
  br label %95

95:                                               ; preds = %94, %69
  %96 = getelementptr inbounds [256 x i8], [256 x i8]* %2, i64 0, i64 0
  %97 = call i32 (i8*, ...) @printf(i8* getelementptr inbounds ([3 x i8], [3 x i8]* @.str, i64 0, i64 0), i8* %96)
  %98 = load i32, i32* %1, align 4
  ret i32 %98
}

declare dso_local i32 @__isoc99_scanf(i8*, ...) #1

; Function Attrs: nounwind readonly
declare dso_local i64 @strlen(i8*) #2

declare dso_local i32 @printf(i8*, ...) #1


!llvm.module.flags = !{!0}
!llvm.ident = !{!1}

!0 = !{i32 1, !"wchar_size", i32 4}
!1 = !{!"clang version 10.0.0-4ubuntu1 "}
